; Function Attrs: mustprogress uwtable
define void @_ZNK8QuantLib16HestonSLVMCModel8localVolEv(ptr dead_on_unwind noalias nocapture writable writeonly sret(%"class.boost::shared_ptr.61") align 8 %agg.result, ptr noundef nonnull align 8 dereferenceable(128) %this) local_unnamed_addr #8 align 2 personality ptr @__gxx_personality_v0 {
entry:
  %localVol_ = getelementptr inbounds nuw i8, ptr %this, i64 16
  %call = tail call noundef nonnull align 8 dereferenceable(16) ptr @_ZNK8QuantLib6HandleINS_21LocalVolTermStructureEE11currentLinkEv(ptr noundef nonnull align 8 dereferenceable(16) %localVol_)
  %0 = load ptr, ptr %call, align 8, !tbaa !115
  store ptr %0, ptr %agg.result, align 8, !tbaa !115
  %pn.i = getelementptr inbounds nuw i8, ptr %agg.result, i64 8
  %pn3.i = getelementptr inbounds nuw i8, ptr %call, i64 8
  %1 = load ptr, ptr %pn3.i, align 8, !tbaa !42
  store ptr %1, ptr %pn.i, align 8, !tbaa !42
  %cmp.not.i.i = icmp eq ptr %1, null
  br i1 %cmp.not.i.i, label %_ZN5boost10shared_ptrIN8QuantLib21LocalVolTermStructureEEC2ERKS3_.exit, label %if.then.i.i

if.then.i.i:                                      ; preds = %entry
  %use_count_.i.i.i = getelementptr inbounds nuw i8, ptr %1, i64 8
  %2 = atomicrmw add ptr %use_count_.i.i.i, i32 1 monotonic, align 4
  br label %_ZN5boost10shared_ptrIN8QuantLib21LocalVolTermStructureEEC2ERKS3_.exit

_ZN5boost10shared_ptrIN8QuantLib21LocalVolTermStructureEEC2ERKS3_.exit: ; preds = %entry, %if.then.i.i
  ret void
}